target datalayout = "e-m:e-p270:32:32-p271:32:32-p272:64:64-i64:64-i128:128-f80:128-n8:16:32:64-S128"
target triple = "x86_64-pc-linux-gnu"

%"class.gmx::CommandLineCommonOptionsHolder" = type <{ %"class.gmx::Options", %"class.gmx::BinaryInformationSettings", i8, i8, i8, i8, i8, [3 x i8], i32, i8, i8, i8, i8, i32, [4 x i8] }>
%"class.gmx::Options" = type { %"class.gmx::IOptionsContainerWithSections", %"class.std::unique_ptr" }
%"class.gmx::IOptionsContainerWithSections" = type { %"class.gmx::IOptionsContainer" }
%"class.gmx::IOptionsContainer" = type { ptr }
%"class.std::unique_ptr" = type { %"struct.std::__uniq_ptr_data" }
%"struct.std::__uniq_ptr_data" = type { %"class.std::__uniq_ptr_impl" }
%"class.std::__uniq_ptr_impl" = type { %"class.std::tuple" }
%"class.std::tuple" = type { %"struct.std::_Tuple_impl" }
%"struct.std::_Tuple_impl" = type { %"struct.std::_Head_base.1" }
%"struct.std::_Head_base.1" = type { ptr }
%"class.gmx::BinaryInformationSettings" = type { i8, i8, i8, i8, ptr, ptr }

; Function Attrs: mustprogress nounwind uwtable
define linkonce_odr noundef nonnull align 8 dereferenceable(24) ptr @_ZN3gmx25BinaryInformationSettings9copyrightEb(ptr noundef nonnull align 8 dereferenceable(24) %0, i1 noundef zeroext %1) #2 comdat align 2 {
  %3 = alloca ptr, align 8
  %4 = alloca i8, align 1
  store ptr %0, ptr %3, align 8
  %5 = zext i1 %1 to i8
  store i8 %5, ptr %4, align 1
  %6 = load ptr, ptr %3, align 8
  %7 = load i8, ptr %4, align 1
  %8 = trunc i8 %7 to i1
  %9 = getelementptr inbounds %"class.gmx::BinaryInformationSettings", ptr %6, i32 0, i32 1
  %10 = zext i1 %8 to i8
  store i8 %10, ptr %9, align 1
  ret ptr %6
}

; Function Attrs: mustprogress nounwind uwtable
define linkonce_odr noundef nonnull align 8 dereferenceable(24) ptr @_ZN3gmx25BinaryInformationSettings12extendedInfoEb(ptr noundef nonnull align 8 dereferenceable(24) %0, i1 noundef zeroext %1) #2 comdat align 2 {
  %3 = alloca ptr, align 8
  %4 = alloca i8, align 1
  store ptr %0, ptr %3, align 8
  %5 = zext i1 %1 to i8
  store i8 %5, ptr %4, align 1
  %6 = load ptr, ptr %3, align 8
  %7 = load i8, ptr %4, align 1
  %8 = trunc i8 %7 to i1
  %9 = getelementptr inbounds %"class.gmx::BinaryInformationSettings", ptr %6, i32 0, i32 0
  %10 = zext i1 %8 to i8
  store i8 %10, ptr %9, align 8
  ret ptr %6
}

; Function Attrs: mustprogress uwtable
define noundef zeroext i1 @_ZN3gmx30CommandLineCommonOptionsHolder13finishOptionsEv(ptr noundef nonnull align 8 dereferenceable(60) %0) #0 align 2 {
  %2 = alloca ptr, align 8
  store ptr %0, ptr %2, align 8
  %3 = load ptr, ptr %2, align 8
  %4 = getelementptr inbounds %"class.gmx::CommandLineCommonOptionsHolder", ptr %3, i32 0, i32 0
  call void @_ZN3gmx7Options6finishEv(ptr noundef nonnull align 8 dereferenceable(16) %4)
  %5 = getelementptr inbounds %"class.gmx::CommandLineCommonOptionsHolder", ptr %3, i32 0, i32 1
  %6 = getelementptr inbounds %"class.gmx::CommandLineCommonOptionsHolder", ptr %3, i32 0, i32 5
  %7 = load i8, ptr %6, align 1
  %8 = trunc i8 %7 to i1
  %9 = call noundef nonnull align 8 dereferenceable(24) ptr @_ZN3gmx25BinaryInformationSettings12extendedInfoEb(ptr noundef nonnull align 8 dereferenceable(24) %5, i1 noundef zeroext %8)
  %10 = getelementptr inbounds %"class.gmx::CommandLineCommonOptionsHolder", ptr %3, i32 0, i32 1
  %11 = getelementptr inbounds %"class.gmx::CommandLineCommonOptionsHolder", ptr %3, i32 0, i32 6
  %12 = load i8, ptr %11, align 4
  %13 = trunc i8 %12 to i1
  br i1 %13, label %14, label %19

14:                                               ; preds = %1
  %15 = getelementptr inbounds %"class.gmx::CommandLineCommonOptionsHolder", ptr %3, i32 0, i32 4
  %16 = load i8, ptr %15, align 2
  %17 = trunc i8 %16 to i1
  %18 = xor i1 %17, true
  br label %19

19:                                               ; preds = %14, %1
  %20 = phi i1 [ false, %1 ], [ %18, %14 ]
  %21 = call noundef nonnull align 8 dereferenceable(24) ptr @_ZN3gmx25BinaryInformationSettings9copyrightEb(ptr noundef nonnull align 8 dereferenceable(24) %10, i1 noundef zeroext %20)
  %22 = getelementptr inbounds %"class.gmx::CommandLineCommonOptionsHolder", ptr %3, i32 0, i32 5
  %23 = load i8, ptr %22, align 1
  %24 = trunc i8 %23 to i1
  %25 = xor i1 %24, true
  ret i1 %25
}