; Function Attrs: mustprogress uwtable
define noundef zeroext i1 @_ZN3gmx30CommandLineCommonOptionsHolder13finishOptionsEv(ptr noundef nonnull align 8 dereferenceable(60) %0) local_unnamed_addr #0 align 2 {
  tail call void @_ZN3gmx7Options6finishEv(ptr noundef nonnull align 8 dereferenceable(16) %0)
  %2 = getelementptr inbounds i8, ptr %0, i64 16
  %3 = getelementptr inbounds i8, ptr %0, i64 43
  %4 = load i8, ptr %3, align 1
  %5 = trunc i8 %4 to i1
  %6 = and i8 %4, 1
  store i8 %6, ptr %2, align 8
  %7 = getelementptr inbounds i8, ptr %0, i64 44
  %8 = load i8, ptr %7, align 4
  %9 = trunc i8 %8 to i1
  %10 = getelementptr inbounds i8, ptr %0, i64 42
  %11 = load i8, ptr %10, align 2
  %12 = and i8 %11, 1
  %13 = xor i8 %12, 1
  %14 = select i1 %9, i8 %13, i8 0
  %15 = getelementptr inbounds i8, ptr %0, i64 17
  store i8 %14, ptr %15, align 1
  %16 = xor i1 %5, true
  ret i1 %16
}